target datalayout = "e-m:e-p270:32:32-p271:32:32-p272:64:64-i64:64-i128:128-f80:128-n8:16:32:64-S128"
target triple = "x86_64-pc-linux-gnu"

%struct._VAConfigAttrib = type { i32, i32 }
%struct.AVCodecContext = type { ptr, i32, i32, ptr, i32, i32, ptr, ptr, ptr, i64, i32, i32, ptr, i32, %struct.AVRational, %struct.AVRational, %struct.AVRational, i32, i32, i32, i32, i32, %struct.AVRational, i32, i32, i32, i32, i32, i32, i32, i32, i32, i32, i32, ptr, ptr, i32, float, float, float, float, float, float, float, float, float, i32, i32, i32, i32, i32, i32, i32, i32, i32, i32, i32, i32, ptr, ptr, ptr, i32, i32, i32, i32, i32, i32, i32, i32, i32, i32, %struct.AVChannelLayout, i32, i32, i32, i32, i32, i32, i32, i32, ptr, i32, i32, i32, float, float, i32, i32, i32, i32, i32, ptr, i64, i64, float, float, i32, i32, ptr, ptr, i32, i32, i32, i32, i32, ptr, ptr, ptr, ptr, i32, i32, [8 x i64], i32, i32, i32, i32, i32, i32, i32, ptr, ptr, i32, i32, i32, i32, i32, i32, i32, i32, i32, i32, ptr, ptr, i32, i32, ptr, ptr, ptr, ptr, i32, i32, i64, i32, i32, i64, ptr, i64, ptr, i32, ptr, i32 }
%struct.AVRational = type { i32, i32 }
%struct.AVChannelLayout = type { i32, i32, %union.anon, ptr }
%union.anon = type { i64 }
%struct.VAAPIEncodeContext = type { %struct.FFHWBaseEncodeContext, ptr, i32, i32, i32, i32, i32, i32, ptr, ptr, i32, i32, i32, i32, i32, i32, [4 x %struct._VAConfigAttrib], i32, i32, i32, ptr, ptr, [4 x i32], [4 x ptr], [4 x i64], i32, %struct._VAEncMiscParameterRateControl, %struct._VAEncMiscParameterHRD, %struct._VAEncMiscParameterFrameRate, %struct._VAEncMiscParameterBufferMaxFrameSize, %struct._VAEncMiscParameterBufferQualityLevel, ptr, ptr, i32, i32, i32, i32, i32, i32, [20 x i32], [22 x i32], [21 x i32], [23 x i32], i32, i32, ptr, i32, i32 }
%struct.FFHWBaseEncodeContext = type { ptr, ptr, ptr, i32, i32, i32, i32, i32, i32, ptr, ptr, ptr, ptr, ptr, ptr, ptr, ptr, [2 x ptr], i32, i64, i64, i64, i64, i64, i64, i64, [112 x i64], i32, i32, i32, i32, i32, i32, i32, i32, i32, i32, i32, i32, i32, i32, i32, i32, ptr, i32, ptr, i32, ptr }
%struct._VAEncMiscParameterRateControl = type { i32, i32, i32, i32, i32, i32, %union.anon.0, i32, i32, i32, i32, [4 x i32] }
%union.anon.0 = type { %struct.anon }
%struct.anon = type { i32 }
%struct._VAEncMiscParameterHRD = type { i32, i32, [4 x i32] }
%struct._VAEncMiscParameterFrameRate = type { i32, %union.anon.1, [4 x i32] }
%union.anon.1 = type { %struct.anon.2 }
%struct.anon.2 = type { i32 }
%struct._VAEncMiscParameterBufferMaxFrameSize = type { i32, i32, [4 x i32] }
%struct._VAEncMiscParameterBufferQualityLevel = type { i32, [4 x i32] }
%struct.VAAPIEncodeType = type { ptr, i32, i32, ptr, ptr, i64, i64, i64, i64, ptr, ptr, ptr, i32, i32, i32, ptr, ptr, ptr, ptr, ptr }
%struct.FFHWBaseEncodePicture = type { ptr, ptr, ptr, i64, i64, i64, i64, i32, ptr, ptr, i32, i32, i32, i32, ptr, ptr, i32, i32, [16 x ptr], [2 x i32], [2 x [2 x ptr]], ptr, [2 x i32], [2 x i32] }
%struct.VAAPIEncodePicture = type { ptr, i32, i32, i32, ptr, ptr, i32, ptr, i32, ptr, i32, [1024 x i8], i64 }
%struct.AVFrame = type { [8 x ptr], [8 x i32], ptr, i32, i32, i32, i32, i32, %struct.AVRational, i64, i64, %struct.AVRational, i32, ptr, i32, i32, [8 x ptr], ptr, i32, ptr, i32, i32, i32, i32, i32, i32, i32, i64, ptr, i32, ptr, ptr, i64, i64, i64, i64, ptr, %struct.AVChannelLayout, i64 }

; Function Attrs: nounwind uwtable
define internal i32 @vaapi_encode_init(ptr noundef %0, ptr noundef %1) #0 {
  %3 = alloca i32, align 4
  %4 = alloca ptr, align 8
  %5 = alloca ptr, align 8
  %6 = alloca ptr, align 8
  %7 = alloca ptr, align 8
  %8 = alloca ptr, align 8
  %9 = alloca i32, align 4
  store ptr %0, ptr %4, align 8, !tbaa !4
  store ptr %1, ptr %5, align 8, !tbaa !229
  call void @llvm.lifetime.start.p0(i64 8, ptr %6) #10
  %10 = load ptr, ptr %4, align 8, !tbaa !4
  %11 = getelementptr inbounds nuw %struct.AVCodecContext, ptr %10, i32 0, i32 6
  %12 = load ptr, ptr %11, align 8, !tbaa !11
  store ptr %12, ptr %6, align 8, !tbaa !33
  call void @llvm.lifetime.start.p0(i64 8, ptr %7) #10
  %13 = load ptr, ptr %5, align 8, !tbaa !229
  %14 = getelementptr inbounds nuw %struct.FFHWBaseEncodePicture, ptr %13, i32 0, i32 0
  %15 = load ptr, ptr %14, align 8, !tbaa !233
  store ptr %15, ptr %7, align 8, !tbaa !234
  call void @llvm.lifetime.start.p0(i64 8, ptr %8) #10
  %16 = load ptr, ptr %5, align 8, !tbaa !229
  %17 = getelementptr inbounds nuw %struct.FFHWBaseEncodePicture, ptr %16, i32 0, i32 14
  %18 = load ptr, ptr %17, align 8, !tbaa !246
  store ptr %18, ptr %8, align 8, !tbaa !247
  %19 = load ptr, ptr %6, align 8, !tbaa !33
  %20 = getelementptr inbounds nuw %struct.VAAPIEncodeContext, ptr %19, i32 0, i32 1
  %21 = load ptr, ptr %20, align 8, !tbaa !63
  %22 = getelementptr inbounds nuw %struct.VAAPIEncodeType, ptr %21, i32 0, i32 5
  %23 = load i64, ptr %22, align 8, !tbaa !248
  %24 = icmp ugt i64 %23, 0
  br i1 %24, label %25, label %40

25:                                               ; preds = %2
  %26 = load ptr, ptr %6, align 8, !tbaa !33
  %27 = getelementptr inbounds nuw %struct.VAAPIEncodeContext, ptr %26, i32 0, i32 1
  %28 = load ptr, ptr %27, align 8, !tbaa !63
  %29 = getelementptr inbounds nuw %struct.VAAPIEncodeType, ptr %28, i32 0, i32 5
  %30 = load i64, ptr %29, align 8, !tbaa !248
  %31 = call noalias ptr @av_mallocz(i64 noundef %30)
  %32 = load ptr, ptr %5, align 8, !tbaa !229
  %33 = getelementptr inbounds nuw %struct.FFHWBaseEncodePicture, ptr %32, i32 0, i32 1
  store ptr %31, ptr %33, align 8, !tbaa !249
  %34 = load ptr, ptr %5, align 8, !tbaa !229
  %35 = getelementptr inbounds nuw %struct.FFHWBaseEncodePicture, ptr %34, i32 0, i32 1
  %36 = load ptr, ptr %35, align 8, !tbaa !249
  %37 = icmp ne ptr %36, null
  br i1 %37, label %39, label %38

38:                                               ; preds = %25
  store i32 -12, ptr %3, align 4
  store i32 1, ptr %9, align 4
  br label %53

39:                                               ; preds = %25
  br label %40

40:                                               ; preds = %39, %2
  %41 = load ptr, ptr %8, align 8, !tbaa !247
  %42 = getelementptr inbounds nuw %struct.AVFrame, ptr %41, i32 0, i32 0
  %43 = getelementptr inbounds [8 x ptr], ptr %42, i64 0, i64 3
  %44 = load ptr, ptr %43, align 8, !tbaa !133
  %45 = ptrtoint ptr %44 to i64
  %46 = trunc i64 %45 to i32
  %47 = load ptr, ptr %7, align 8, !tbaa !234
  %48 = getelementptr inbounds nuw %struct.VAAPIEncodePicture, ptr %47, i32 0, i32 1
  store i32 %46, ptr %48, align 8, !tbaa !250
  %49 = load ptr, ptr %7, align 8, !tbaa !234
  %50 = getelementptr inbounds nuw %struct.VAAPIEncodePicture, ptr %49, i32 0, i32 2
  store i32 -1, ptr %50, align 4, !tbaa !251
  %51 = load ptr, ptr %7, align 8, !tbaa !234
  %52 = getelementptr inbounds nuw %struct.VAAPIEncodePicture, ptr %51, i32 0, i32 6
  store i32 -1, ptr %52, align 8, !tbaa !243
  store i32 0, ptr %3, align 4
  store i32 1, ptr %9, align 4
  br label %53

53:                                               ; preds = %40, %38
  call void @llvm.lifetime.end.p0(i64 8, ptr %8) #10
  call void @llvm.lifetime.end.p0(i64 8, ptr %7) #10
  call void @llvm.lifetime.end.p0(i64 8, ptr %6) #10
  %54 = load i32, ptr %3, align 4
  ret i32 %54
}