; Function Attrs: nounwind uwtable
define internal range(i32 -12, 1) i32 @vaapi_encode_init(ptr noundef readonly captures(none) %0, ptr noundef captures(none) %1) #0 {
  %3 = getelementptr inbounds nuw i8, ptr %0, i64 32
  %4 = load ptr, ptr %3, align 8, !tbaa !4
  %5 = load ptr, ptr %1, align 8, !tbaa !194
  %6 = getelementptr inbounds nuw i8, ptr %1, i64 96
  %7 = load ptr, ptr %6, align 8, !tbaa !206
  %8 = getelementptr inbounds nuw i8, ptr %4, i64 1192
  %9 = load ptr, ptr %8, align 8, !tbaa !53
  %10 = getelementptr inbounds nuw i8, ptr %9, i64 32
  %11 = load i64, ptr %10, align 8, !tbaa !207
  %.not = icmp eq i64 %11, 0
  br i1 %.not, label %15, label %12

12:                                               ; preds = %2
  %13 = tail call noalias ptr @av_mallocz(i64 noundef %11) #9
  %14 = getelementptr inbounds nuw i8, ptr %1, i64 8
  store ptr %13, ptr %14, align 8, !tbaa !208
  %.not12 = icmp eq ptr %13, null
  br i1 %.not12, label %23, label %15

15:                                               ; preds = %12, %2
  %16 = getelementptr inbounds nuw i8, ptr %7, i64 24
  %17 = load ptr, ptr %16, align 8, !tbaa !209
  %18 = ptrtoint ptr %17 to i64
  %19 = trunc i64 %18 to i32
  %20 = getelementptr inbounds nuw i8, ptr %5, i64 8
  store i32 %19, ptr %20, align 8, !tbaa !210
  %21 = getelementptr inbounds nuw i8, ptr %5, i64 12
  store i32 -1, ptr %21, align 4, !tbaa !211
  %22 = getelementptr inbounds nuw i8, ptr %5, i64 40
  store i32 -1, ptr %22, align 8, !tbaa !202
  br label %23

23:                                               ; preds = %12, %15
  %.0 = phi i32 [ 0, %15 ], [ -12, %12 ]
  ret i32 %.0
}